target datalayout = "e-m:e-p270:32:32-p271:32:32-p272:64:64-i64:64-i128:128-f80:128-n8:16:32:64-S128"
target triple = "x86_64-unknown-linux-gnu"

%"struct.euf::dependent_eq" = type { ptr, ptr, %class.obj_ref, ptr }
%class.obj_ref = type { ptr, ptr }
%"struct.__gnu_cxx::__ops::_Iter_comp_iter" = type { %class.anon.46 }
%class.anon.46 = type { i8 }

; Function Attrs: mustprogress uwtable
define internal void @"_ZSt21__inplace_stable_sortIPN3euf12dependent_eqEN9__gnu_cxx5__ops15_Iter_comp_iterIZNS0_17solve_context_eqs25collect_nested_equalitiesER6vectorIS1_Lb1EjEE3$_0EEEvT_SC_T0_"(ptr noundef %__first, ptr noundef %__last) #4 {
entry:
  %__comp = alloca %"struct.__gnu_cxx::__ops::_Iter_comp_iter", align 1
  %__first.addr = alloca ptr, align 8
  %__last.addr = alloca ptr, align 8
  %agg.tmp = alloca %"struct.__gnu_cxx::__ops::_Iter_comp_iter", align 1
  %__middle = alloca ptr, align 8
  %agg.tmp5 = alloca %"struct.__gnu_cxx::__ops::_Iter_comp_iter", align 1
  %agg.tmp6 = alloca %"struct.__gnu_cxx::__ops::_Iter_comp_iter", align 1
  %agg.tmp15 = alloca %"struct.__gnu_cxx::__ops::_Iter_comp_iter", align 1
  store ptr %__first, ptr %__first.addr, align 8
  store ptr %__last, ptr %__last.addr, align 8
  %0 = load ptr, ptr %__last.addr, align 8
  %1 = load ptr, ptr %__first.addr, align 8
  %sub.ptr.lhs.cast = ptrtoint ptr %0 to i64
  %sub.ptr.rhs.cast = ptrtoint ptr %1 to i64
  %sub.ptr.sub = sub i64 %sub.ptr.lhs.cast, %sub.ptr.rhs.cast
  %sub.ptr.div = sdiv exact i64 %sub.ptr.sub, 40
  %cmp = icmp slt i64 %sub.ptr.div, 15
  br i1 %cmp, label %if.then, label %if.end

if.then:                                          ; preds = %entry
  %2 = load ptr, ptr %__first.addr, align 8
  %3 = load ptr, ptr %__last.addr, align 8
  call void @llvm.memcpy.p0.p0.i64(ptr align 1 %agg.tmp, ptr align 1 %__comp, i64 1, i1 false)
  call void @"_ZSt16__insertion_sortIPN3euf12dependent_eqEN9__gnu_cxx5__ops15_Iter_comp_iterIZNS0_17solve_context_eqs25collect_nested_equalitiesER6vectorIS1_Lb1EjEE3$_0EEEvT_SC_T0_"(ptr noundef %2, ptr noundef %3)
  br label %return

if.end:                                           ; preds = %entry
  %4 = load ptr, ptr %__first.addr, align 8
  %5 = load ptr, ptr %__last.addr, align 8
  %6 = load ptr, ptr %__first.addr, align 8
  %sub.ptr.lhs.cast1 = ptrtoint ptr %5 to i64
  %sub.ptr.rhs.cast2 = ptrtoint ptr %6 to i64
  %sub.ptr.sub3 = sub i64 %sub.ptr.lhs.cast1, %sub.ptr.rhs.cast2
  %sub.ptr.div4 = sdiv exact i64 %sub.ptr.sub3, 40
  %div = sdiv i64 %sub.ptr.div4, 2
  %add.ptr = getelementptr inbounds %"struct.euf::dependent_eq", ptr %4, i64 %div
  store ptr %add.ptr, ptr %__middle, align 8
  %7 = load ptr, ptr %__first.addr, align 8
  %8 = load ptr, ptr %__middle, align 8
  call void @llvm.memcpy.p0.p0.i64(ptr align 1 %agg.tmp5, ptr align 1 %__comp, i64 1, i1 false)
  call void @"_ZSt21__inplace_stable_sortIPN3euf12dependent_eqEN9__gnu_cxx5__ops15_Iter_comp_iterIZNS0_17solve_context_eqs25collect_nested_equalitiesER6vectorIS1_Lb1EjEE3$_0EEEvT_SC_T0_"(ptr noundef %7, ptr noundef %8)
  %9 = load ptr, ptr %__middle, align 8
  %10 = load ptr, ptr %__last.addr, align 8
  call void @llvm.memcpy.p0.p0.i64(ptr align 1 %agg.tmp6, ptr align 1 %__comp, i64 1, i1 false)
  call void @"_ZSt21__inplace_stable_sortIPN3euf12dependent_eqEN9__gnu_cxx5__ops15_Iter_comp_iterIZNS0_17solve_context_eqs25collect_nested_equalitiesER6vectorIS1_Lb1EjEE3$_0EEEvT_SC_T0_"(ptr noundef %9, ptr noundef %10)
  %11 = load ptr, ptr %__first.addr, align 8
  %12 = load ptr, ptr %__middle, align 8
  %13 = load ptr, ptr %__last.addr, align 8
  %14 = load ptr, ptr %__middle, align 8
  %15 = load ptr, ptr %__first.addr, align 8
  %sub.ptr.lhs.cast7 = ptrtoint ptr %14 to i64
  %sub.ptr.rhs.cast8 = ptrtoint ptr %15 to i64
  %sub.ptr.sub9 = sub i64 %sub.ptr.lhs.cast7, %sub.ptr.rhs.cast8
  %sub.ptr.div10 = sdiv exact i64 %sub.ptr.sub9, 40
  %16 = load ptr, ptr %__last.addr, align 8
  %17 = load ptr, ptr %__middle, align 8
  %sub.ptr.lhs.cast11 = ptrtoint ptr %16 to i64
  %sub.ptr.rhs.cast12 = ptrtoint ptr %17 to i64
  %sub.ptr.sub13 = sub i64 %sub.ptr.lhs.cast11, %sub.ptr.rhs.cast12
  %sub.ptr.div14 = sdiv exact i64 %sub.ptr.sub13, 40
  call void @llvm.memcpy.p0.p0.i64(ptr align 1 %agg.tmp15, ptr align 1 %__comp, i64 1, i1 false)
  call void @"_ZSt22__merge_without_bufferIPN3euf12dependent_eqElN9__gnu_cxx5__ops15_Iter_comp_iterIZNS0_17solve_context_eqs25collect_nested_equalitiesER6vectorIS1_Lb1EjEE3$_0EEEvT_SC_SC_T0_SD_T1_"(ptr noundef %11, ptr noundef %12, ptr noundef %13, i64 noundef %sub.ptr.div10, i64 noundef %sub.ptr.div14)
  br label %return

return:                                           ; preds = %if.end, %if.then
  ret void
}