; Function Attrs: mustprogress uwtable
define internal fastcc void @"_ZSt21__inplace_stable_sortIPN3euf12dependent_eqEN9__gnu_cxx5__ops15_Iter_comp_iterIZNS0_17solve_context_eqs25collect_nested_equalitiesER6vectorIS1_Lb1EjEE3$_0EEEvT_SC_T0_"(ptr noundef %__first, ptr noundef %__last) unnamed_addr #5 {
entry:
  %sub.ptr.lhs.cast = ptrtoint ptr %__last to i64
  %sub.ptr.rhs.cast = ptrtoint ptr %__first to i64
  %sub.ptr.sub = sub i64 %sub.ptr.lhs.cast, %sub.ptr.rhs.cast
  %cmp = icmp slt i64 %sub.ptr.sub, 600
  br i1 %cmp, label %if.then, label %if.end

if.then:                                          ; preds = %entry
  tail call fastcc void @"_ZSt16__insertion_sortIPN3euf12dependent_eqEN9__gnu_cxx5__ops15_Iter_comp_iterIZNS0_17solve_context_eqs25collect_nested_equalitiesER6vectorIS1_Lb1EjEE3$_0EEEvT_SC_T0_"(ptr noundef %__first, ptr noundef %__last)
  br label %common.ret20

common.ret20:                                     ; preds = %if.end, %if.then
  ret void

if.end:                                           ; preds = %entry
  %sub.ptr.div = udiv exact i64 %sub.ptr.sub, 40
  %div19 = lshr i64 %sub.ptr.div, 1
  %add.ptr = getelementptr inbounds %"struct.euf::dependent_eq", ptr %__first, i64 %div19
  tail call fastcc void @"_ZSt21__inplace_stable_sortIPN3euf12dependent_eqEN9__gnu_cxx5__ops15_Iter_comp_iterIZNS0_17solve_context_eqs25collect_nested_equalitiesER6vectorIS1_Lb1EjEE3$_0EEEvT_SC_T0_"(ptr noundef %__first, ptr noundef %add.ptr)
  tail call fastcc void @"_ZSt21__inplace_stable_sortIPN3euf12dependent_eqEN9__gnu_cxx5__ops15_Iter_comp_iterIZNS0_17solve_context_eqs25collect_nested_equalitiesER6vectorIS1_Lb1EjEE3$_0EEEvT_SC_T0_"(ptr noundef %add.ptr, ptr noundef %__last)
  %sub.ptr.lhs.cast7 = ptrtoint ptr %add.ptr to i64
  %sub.ptr.sub13 = sub i64 %sub.ptr.lhs.cast, %sub.ptr.lhs.cast7
  %sub.ptr.div14 = sdiv exact i64 %sub.ptr.sub13, 40
  tail call fastcc void @"_ZSt22__merge_without_bufferIPN3euf12dependent_eqElN9__gnu_cxx5__ops15_Iter_comp_iterIZNS0_17solve_context_eqs25collect_nested_equalitiesER6vectorIS1_Lb1EjEE3$_0EEEvT_SC_SC_T0_SD_T1_"(ptr noundef %__first, ptr noundef %add.ptr, ptr noundef %__last, i64 noundef %div19, i64 noundef %sub.ptr.div14)
  br label %common.ret20
}